; Function Attrs: mustprogress uwtable
define void @_Z17rmsd_distributionPKcP5t_matPK16gmx_output_env_t(ptr noundef %0, ptr nocapture noundef readonly %1, ptr noundef %2) local_unnamed_addr #0 {
  %4 = getelementptr inbounds i8, ptr %1, i64 24
  %5 = load float, ptr %4, align 8
  %6 = getelementptr inbounds i8, ptr %1, i64 4
  %7 = load i32, ptr %6, align 4
  %8 = getelementptr inbounds i8, ptr %1, i64 40
  %9 = load ptr, ptr %8, align 8
  tail call void @_Z13low_rmsd_distPKcfiPPfPK16gmx_output_env_t(ptr noundef %0, float noundef %5, i32 noundef %7, ptr noundef %9, ptr noundef %2)
  ret void
}